target datalayout = "e-m:e-p270:32:32-p271:32:32-p272:64:64-i64:64-i128:128-f80:128-n8:16:32:64-S128"
target triple = "x86_64-pc-linux-gnu"

@.str.208 = private unnamed_addr constant [40 x i8] c"set_blocking failed reading child error\00", align 1

; Function Attrs: nounwind sspstrong uwtable
define internal i32 @set_blocking(i32 noundef %0) #0 {
  %2 = alloca i32, align 4
  %3 = alloca i32, align 4
  %4 = alloca i32, align 4
  %5 = alloca i32, align 4
  store i32 %0, ptr %3, align 4, !tbaa !34
  call void @llvm.lifetime.start.p0(i64 4, ptr %4) #27
  %6 = load i32, ptr %3, align 4, !tbaa !34
  %7 = call i32 (i32, i32, ...) @fcntl(i32 noundef %6, i32 noundef 3)
  store i32 %7, ptr %4, align 4, !tbaa !34
  %8 = load i32, ptr %4, align 4, !tbaa !34
  %9 = icmp eq i32 %8, -1
  br i1 %9, label %10, label %12

10:                                               ; preds = %1
  %11 = load i32, ptr %4, align 4, !tbaa !34
  store i32 %11, ptr %2, align 4
  store i32 1, ptr %5, align 4
  br label %23

12:                                               ; preds = %1
  %13 = load i32, ptr %4, align 4, !tbaa !34
  %14 = and i32 %13, 2048
  %15 = icmp ne i32 %14, 0
  br i1 %15, label %16, label %22

16:                                               ; preds = %12
  %17 = load i32, ptr %4, align 4, !tbaa !34
  %18 = and i32 %17, -2049
  store i32 %18, ptr %4, align 4, !tbaa !34
  %19 = load i32, ptr %3, align 4, !tbaa !34
  %20 = load i32, ptr %4, align 4, !tbaa !34
  %21 = call i32 (i32, i32, ...) @fcntl(i32 noundef %19, i32 noundef 4, i32 noundef %20)
  store i32 %21, ptr %2, align 4
  store i32 1, ptr %5, align 4
  br label %23

22:                                               ; preds = %12
  store i32 0, ptr %2, align 4
  store i32 1, ptr %5, align 4
  br label %23

23:                                               ; preds = %22, %16, %10
  call void @llvm.lifetime.end.p0(i64 4, ptr %4) #27
  %24 = load i32, ptr %2, align 4
  ret i32 %24
}

; Function Attrs: nounwind sspstrong uwtable
define internal i64 @read_retry(i32 noundef %0, ptr noundef %1, i64 noundef %2) #0 {
  %4 = alloca i32, align 4
  %5 = alloca ptr, align 8
  %6 = alloca i64, align 8
  %7 = alloca i64, align 8
  store i32 %0, ptr %4, align 4, !tbaa !34
  store ptr %1, ptr %5, align 8, !tbaa !62
  store i64 %2, ptr %6, align 8, !tbaa !35
  call void @llvm.lifetime.start.p0(i64 8, ptr %7) #27
  %8 = load i32, ptr %4, align 4, !tbaa !34
  %9 = call i32 @set_blocking(i32 noundef %8)
  %10 = icmp ne i32 %9, 0
  br i1 %10, label %11, label %14

11:                                               ; preds = %3
  %12 = call ptr @rb_errno_ptr()
  %13 = load i32, ptr %12, align 4, !tbaa !34
  call void @rb_async_bug_errno(ptr noundef @.str.208, i32 noundef %13) #30
  unreachable

14:                                               ; preds = %3
  br label %15

15:                                               ; preds = %27, %14
  %16 = load i32, ptr %4, align 4, !tbaa !34
  %17 = load ptr, ptr %5, align 8, !tbaa !62
  %18 = load i64, ptr %6, align 8, !tbaa !35
  %19 = call i64 @read(i32 noundef %16, ptr noundef %17, i64 noundef %18)
  store i64 %19, ptr %7, align 8, !tbaa !35
  br label %20

20:                                               ; preds = %15
  %21 = load i64, ptr %7, align 8, !tbaa !35
  %22 = icmp slt i64 %21, 0
  br i1 %22, label %23, label %27

23:                                               ; preds = %20
  %24 = call ptr @rb_errno_ptr()
  %25 = load i32, ptr %24, align 4, !tbaa !34
  %26 = icmp eq i32 %25, 4
  br label %27

27:                                               ; preds = %23, %20
  %28 = phi i1 [ false, %20 ], [ %26, %23 ]
  br i1 %28, label %15, label %29, !llvm.loop !281

29:                                               ; preds = %27
  %30 = load i64, ptr %7, align 8, !tbaa !35
  call void @llvm.lifetime.end.p0(i64 8, ptr %7) #27
  ret i64 %30
}