; Function Attrs: nounwind sspstrong uwtable
define internal fastcc noundef i64 @read_retry(i32 noundef %0, ptr noundef nonnull captures(none) %1, i64 noundef range(i64 0, -1) %2) unnamed_addr #1 {
  %4 = tail call i32 (i32, i32, ...) @fcntl(i32 noundef %0, i32 noundef 3) #27
  %5 = icmp eq i32 %4, -1
  br i1 %5, label %set_blocking.exit.thread, label %6

6:                                                ; preds = %3
  %7 = and i32 %4, 2048
  %.not.i = icmp eq i32 %7, 0
  br i1 %.not.i, label %.critedge7.preheader, label %set_blocking.exit

.critedge7.preheader:                             ; preds = %set_blocking.exit, %6
  br label %.critedge7

set_blocking.exit:                                ; preds = %6
  %8 = and i32 %4, -2049
  %9 = tail call i32 (i32, i32, ...) @fcntl(i32 noundef %0, i32 noundef 4, i32 noundef %8) #27
  %10 = icmp eq i32 %9, 0
  br i1 %10, label %.critedge7.preheader, label %set_blocking.exit.thread

set_blocking.exit.thread:                         ; preds = %3, %set_blocking.exit
  %11 = tail call ptr @rb_errno_ptr() #27
  %12 = load i32, ptr %11, align 4, !tbaa !60
  tail call void @rb_async_bug_errno(ptr noundef nonnull @.str.208, i32 noundef %12) #29
  unreachable

.critedge7:                                       ; preds = %.critedge7.preheader, %15
  %13 = tail call i64 @read(i32 noundef %0, ptr noundef nonnull %1, i64 noundef %2) #27
  %14 = icmp slt i64 %13, 0
  br i1 %14, label %15, label %.critedge

15:                                               ; preds = %.critedge7
  %16 = tail call ptr @rb_errno_ptr() #27
  %17 = load i32, ptr %16, align 4, !tbaa !60
  %18 = icmp eq i32 %17, 4
  br i1 %18, label %.critedge7, label %.critedge, !llvm.loop !315

.critedge:                                        ; preds = %.critedge7, %15
  ret i64 %13
}